target datalayout = "e-m:e-p270:32:32-p271:32:32-p272:64:64-i64:64-i128:128-f80:128-n8:16:32:64-S128"
target triple = "x86_64-pc-linux-gnu"

%"class.clang::SourceLocation" = type { i32 }
%"class.llvm::SmallVectorBase" = type { ptr, i32, i32 }
%"class.llvm::SmallPtrSetImplBase.base" = type <{ ptr, ptr, i32, i32, i32 }>
%"class.clang::sema::FunctionScopeInfo" = type { ptr, i32, %"class.clang::SourceLocation", %"class.clang::SourceLocation", %"class.clang::SourceLocation", i32, %"class.clang::SourceLocation", %"class.clang::SourceLocation", %"class.clang::DiagnosticErrorTrap", %"class.llvm::SmallVector.1188", %"class.llvm::SmallVector.1193", ptr, %"struct.llvm::SmallMapVector", %"struct.std::pair.1207", %"class.llvm::SmallVector.1209", %"class.llvm::SmallPtrSet.1214", %"class.llvm::TinyPtrVector", %"class.llvm::SmallVector.1222", %"class.llvm::SmallPtrSet.1227", %"class.llvm::SmallVector.1230", %"class.llvm::SmallDenseMap.1235" }
%"class.clang::DiagnosticErrorTrap" = type { ptr, i32, i32 }
%"class.llvm::SmallVector.1188" = type { %"class.llvm::SmallVectorImpl.1189", %"struct.llvm::SmallVectorStorage.1192" }
%"class.llvm::SmallVectorImpl.1189" = type { %"class.llvm::SmallVectorTemplateBase.1190" }
%"class.llvm::SmallVectorTemplateBase.1190" = type { %"class.llvm::SmallVectorTemplateCommon.1191" }
%"class.llvm::SmallVectorTemplateCommon.1191" = type { %"class.llvm::SmallVectorBase" }
%"struct.llvm::SmallVectorStorage.1192" = type { [64 x i8] }
%"class.llvm::SmallVector.1193" = type { %"class.llvm::SmallVectorImpl.1194", %"struct.llvm::SmallVectorStorage.1197" }
%"class.llvm::SmallVectorImpl.1194" = type { %"class.llvm::SmallVectorTemplateBase.1195" }
%"class.llvm::SmallVectorTemplateBase.1195" = type { %"class.llvm::SmallVectorTemplateCommon.1196" }
%"class.llvm::SmallVectorTemplateCommon.1196" = type { %"class.llvm::SmallVectorBase" }
%"struct.llvm::SmallVectorStorage.1197" = type { [32 x i8] }
%"struct.llvm::SmallMapVector" = type { %"class.llvm::MapVector.1198" }
%"class.llvm::MapVector.1198" = type { %"class.llvm::SmallDenseMap.1199", %"class.llvm::SmallVector.1202" }
%"class.llvm::SmallDenseMap.1199" = type { i32, i32, %"struct.llvm::AlignedCharArrayUnion.1201" }
%"struct.llvm::AlignedCharArrayUnion.1201" = type { [64 x i8] }
%"class.llvm::SmallVector.1202" = type { %"class.llvm::SmallVectorImpl.1203", %"struct.llvm::SmallVectorStorage.1206" }
%"class.llvm::SmallVectorImpl.1203" = type { %"class.llvm::SmallVectorTemplateBase.1204" }
%"class.llvm::SmallVectorTemplateBase.1204" = type { %"class.llvm::SmallVectorTemplateCommon.1205" }
%"class.llvm::SmallVectorTemplateCommon.1205" = type { %"class.llvm::SmallVectorBase" }
%"struct.llvm::SmallVectorStorage.1206" = type { [64 x i8] }
%"struct.std::pair.1207" = type { ptr, ptr }
%"class.llvm::SmallVector.1209" = type { %"class.llvm::SmallVectorImpl.1210", %"struct.llvm::SmallVectorStorage.1213" }
%"class.llvm::SmallVectorImpl.1210" = type { %"class.llvm::SmallVectorTemplateBase.1211" }
%"class.llvm::SmallVectorTemplateBase.1211" = type { %"class.llvm::SmallVectorTemplateCommon.1212" }
%"class.llvm::SmallVectorTemplateCommon.1212" = type { %"class.llvm::SmallVectorBase" }
%"struct.llvm::SmallVectorStorage.1213" = type { [32 x i8] }
%"class.llvm::SmallPtrSet.1214" = type { %"class.llvm::SmallPtrSetImpl.base.1216", [1 x ptr] }
%"class.llvm::SmallPtrSetImpl.base.1216" = type { %"class.llvm::SmallPtrSetImplBase.base" }
%"class.llvm::TinyPtrVector" = type { %"class.llvm::PointerUnion.1217" }
%"class.llvm::PointerUnion.1217" = type { %"class.llvm::pointer_union_detail::PointerUnionMembers.1218" }
%"class.llvm::pointer_union_detail::PointerUnionMembers.1218" = type { %"class.llvm::pointer_union_detail::PointerUnionMembers.1219" }
%"class.llvm::pointer_union_detail::PointerUnionMembers.1219" = type { %"class.llvm::pointer_union_detail::PointerUnionMembers.1220" }
%"class.llvm::pointer_union_detail::PointerUnionMembers.1220" = type { %"class.llvm::PointerIntPair.1221" }
%"class.llvm::PointerIntPair.1221" = type { %"struct.llvm::detail::PunnedPointer.647" }
%"struct.llvm::detail::PunnedPointer.647" = type { [8 x i8] }
%"class.llvm::SmallVector.1222" = type { %"class.llvm::SmallVectorImpl.1223", %"struct.llvm::SmallVectorStorage.1226" }
%"class.llvm::SmallVectorImpl.1223" = type { %"class.llvm::SmallVectorTemplateBase.1224" }
%"class.llvm::SmallVectorTemplateBase.1224" = type { %"class.llvm::SmallVectorTemplateCommon.1225" }
%"class.llvm::SmallVectorTemplateCommon.1225" = type { %"class.llvm::SmallVectorBase" }
%"struct.llvm::SmallVectorStorage.1226" = type { [160 x i8] }
%"class.llvm::SmallPtrSet.1227" = type { %"class.llvm::SmallPtrSetImpl.base.1229", [8 x ptr] }
%"class.llvm::SmallPtrSetImpl.base.1229" = type { %"class.llvm::SmallPtrSetImplBase.base" }
%"class.llvm::SmallVector.1230" = type { %"class.llvm::SmallVectorImpl.1231", %"struct.llvm::SmallVectorStorage.1234" }
%"class.llvm::SmallVectorImpl.1231" = type { %"class.llvm::SmallVectorTemplateBase.1232" }
%"class.llvm::SmallVectorTemplateBase.1232" = type { %"class.llvm::SmallVectorTemplateCommon.1233" }
%"class.llvm::SmallVectorTemplateCommon.1233" = type { %"class.llvm::SmallVectorBase" }
%"struct.llvm::SmallVectorStorage.1234" = type { [32 x i8] }
%"class.llvm::SmallDenseMap.1235" = type { i32, i32, %"struct.llvm::AlignedCharArrayUnion.1237" }
%"struct.llvm::AlignedCharArrayUnion.1237" = type { [512 x i8] }
%"class.clang::CoroutineStmtBuilder" = type { %"struct.clang::CoroutineBodyStmt::CtorArgs", ptr, ptr, ptr, i8, %"class.clang::SourceLocation", %"class.llvm::SmallVector.1308", i8, ptr }
%"struct.clang::CoroutineBodyStmt::CtorArgs" = type { ptr, ptr, ptr, ptr, ptr, ptr, ptr, ptr, ptr, ptr, ptr, ptr, %"class.llvm::ArrayRef.1307" }
%"class.llvm::ArrayRef.1307" = type { ptr, i64 }
%"class.llvm::SmallVector.1308" = type { %"class.llvm::SmallVectorImpl.1309", %"struct.llvm::SmallVectorStorage.1312" }
%"class.llvm::SmallVectorImpl.1309" = type { %"class.llvm::SmallVectorTemplateBase.1310" }
%"class.llvm::SmallVectorTemplateBase.1310" = type { %"class.llvm::SmallVectorTemplateCommon.1311" }
%"class.llvm::SmallVectorTemplateCommon.1311" = type { %"class.llvm::SmallVectorBase" }
%"struct.llvm::SmallVectorStorage.1312" = type { [32 x i8] }

; Function Attrs: mustprogress nounwind uwtable
define linkonce_odr hidden noundef ptr @_ZN4llvm16cast_convert_valIN5clang4ExprEPNS1_4StmtES4_E4doitEPKS3_(ptr noundef %0) #0 comdat align 2 {
  %2 = alloca ptr, align 8
  store ptr %0, ptr %2, align 8
  %3 = load ptr, ptr %2, align 8
  ret ptr %3
}

; Function Attrs: mustprogress nounwind uwtable
define linkonce_odr hidden noundef ptr @_ZN4llvm8CastInfoIN5clang4ExprEPNS1_4StmtEvE6doCastERKS4_(ptr noundef nonnull align 8 dereferenceable(8) %0) #0 comdat align 2 {
  %2 = alloca ptr, align 8
  store ptr %0, ptr %2, align 8
  %3 = load ptr, ptr %2, align 8
  %4 = load ptr, ptr %3, align 8
  %5 = call noundef ptr @_ZN4llvm16cast_convert_valIN5clang4ExprEPNS1_4StmtES4_E4doitEPKS3_(ptr noundef %4)
  ret ptr %5
}

; Function Attrs: mustprogress nounwind uwtable
define linkonce_odr hidden noundef ptr @_ZN4llvm4castIN5clang4ExprENS1_4StmtEEEDcPT0_(ptr noundef %0) #0 comdat {
  %2 = alloca ptr, align 8
  store ptr %0, ptr %2, align 8
  %3 = call noundef ptr @_ZN4llvm8CastInfoIN5clang4ExprEPNS1_4StmtEvE6doCastERKS4_(ptr noundef nonnull align 8 dereferenceable(8) %2)
  ret ptr %3
}

; Function Attrs: mustprogress nounwind uwtable
define linkonce_odr hidden noundef zeroext i1 @_ZNK5clang4sema17FunctionScopeInfo27hasInvalidCoroutineSuspendsEv(ptr noundef nonnull align 8 dereferenceable(1296) %0) #0 comdat align 2 {
  %2 = alloca ptr, align 8
  store ptr %0, ptr %2, align 8
  %3 = load ptr, ptr %2, align 8
  %4 = getelementptr inbounds nuw %"class.clang::sema::FunctionScopeInfo", ptr %3, i32 0, i32 1
  %5 = load i32, ptr %4, align 8
  %6 = lshr i32 %5, 17
  %7 = and i32 %6, 1
  %8 = trunc i32 %7 to i1
  br i1 %8, label %14, label %9

9:                                                ; preds = %1
  %10 = getelementptr inbounds nuw %"class.clang::sema::FunctionScopeInfo", ptr %3, i32 0, i32 13
  %11 = getelementptr inbounds nuw %"struct.std::pair.1207", ptr %10, i32 0, i32 0
  %12 = load ptr, ptr %11, align 8
  %13 = icmp eq ptr %12, null
  br label %14

14:                                               ; preds = %9, %1
  %15 = phi i1 [ false, %1 ], [ %13, %9 ]
  ret i1 %15
}

; Function Attrs: mustprogress nounwind uwtable
define dso_local noundef zeroext i1 @_ZN5clang20CoroutineStmtBuilder26makeInitialAndFinalSuspendEv(ptr noundef nonnull align 8 dereferenceable(208) %0) #0 align 2 {
  %2 = alloca i1, align 1
  %3 = alloca ptr, align 8
  store ptr %0, ptr %3, align 8
  %4 = load ptr, ptr %3, align 8
  %5 = getelementptr inbounds nuw %"class.clang::CoroutineStmtBuilder", ptr %4, i32 0, i32 3
  %6 = load ptr, ptr %5, align 8
  %7 = call noundef zeroext i1 @_ZNK5clang4sema17FunctionScopeInfo27hasInvalidCoroutineSuspendsEv(ptr noundef nonnull align 8 dereferenceable(1296) %6)
  br i1 %7, label %8, label %9

8:                                                ; preds = %1
  store i1 false, ptr %2, align 1
  br label %24

9:                                                ; preds = %1
  %10 = getelementptr inbounds nuw %"class.clang::CoroutineStmtBuilder", ptr %4, i32 0, i32 3
  %11 = load ptr, ptr %10, align 8
  %12 = getelementptr inbounds nuw %"class.clang::sema::FunctionScopeInfo", ptr %11, i32 0, i32 13
  %13 = getelementptr inbounds nuw %"struct.std::pair.1207", ptr %12, i32 0, i32 0
  %14 = load ptr, ptr %13, align 8
  %15 = call noundef ptr @_ZN4llvm4castIN5clang4ExprENS1_4StmtEEEDcPT0_(ptr noundef %14)
  %16 = getelementptr inbounds nuw %"struct.clang::CoroutineBodyStmt::CtorArgs", ptr %4, i32 0, i32 2
  store ptr %15, ptr %16, align 8
  %17 = getelementptr inbounds nuw %"class.clang::CoroutineStmtBuilder", ptr %4, i32 0, i32 3
  %18 = load ptr, ptr %17, align 8
  %19 = getelementptr inbounds nuw %"class.clang::sema::FunctionScopeInfo", ptr %18, i32 0, i32 13
  %20 = getelementptr inbounds nuw %"struct.std::pair.1207", ptr %19, i32 0, i32 1
  %21 = load ptr, ptr %20, align 8
  %22 = call noundef ptr @_ZN4llvm4castIN5clang4ExprENS1_4StmtEEEDcPT0_(ptr noundef %21)
  %23 = getelementptr inbounds nuw %"struct.clang::CoroutineBodyStmt::CtorArgs", ptr %4, i32 0, i32 3
  store ptr %22, ptr %23, align 8
  store i1 true, ptr %2, align 1
  br label %24

24:                                               ; preds = %9, %8
  %25 = load i1, ptr %2, align 1
  ret i1 %25
}