; Function Attrs: mustprogress nofree norecurse nosync nounwind willreturn memory(read, argmem: readwrite, inaccessiblemem: none) uwtable
define dso_local noundef zeroext i1 @_ZN5clang20CoroutineStmtBuilder26makeInitialAndFinalSuspendEv(ptr nocapture noundef nonnull align 8 dereferenceable(208) %0) local_unnamed_addr #6 align 2 {
  %2 = getelementptr inbounds nuw i8, ptr %0, i64 128
  %3 = load ptr, ptr %2, align 8
  %4 = getelementptr inbounds nuw i8, ptr %3, i64 8
  %5 = load i32, ptr %4, align 8
  %6 = and i32 %5, 131072
  %.not.i = icmp ne i32 %6, 0
  %7 = getelementptr inbounds nuw i8, ptr %3, i64 344
  %8 = load ptr, ptr %7, align 8
  %9 = icmp ne ptr %8, null
  %.not2 = select i1 %.not.i, i1 true, i1 %9
  br i1 %.not2, label %10, label %15

10:                                               ; preds = %1
  %11 = getelementptr inbounds nuw i8, ptr %0, i64 16
  store ptr %8, ptr %11, align 8
  %12 = getelementptr inbounds i8, ptr %3, i64 352
  %13 = load ptr, ptr %12, align 8
  %14 = getelementptr inbounds nuw i8, ptr %0, i64 24
  store ptr %13, ptr %14, align 8
  br label %15

15:                                               ; preds = %1, %10
  ret i1 %.not2
}